; ModuleID = '24/298.c'
source_filename = "24/298.c"
target datalayout = "e-m:e-p270:32:32-p271:32:32-p272:64:64-i64:64-f80:128-n8:16:32:64-S128"
target triple = "x86_64-pc-linux-gnu"

@.str = private unnamed_addr constant [3 x i8] c"%c\00", align 1
@.str.1 = private unnamed_addr constant [2 x i8] c"\0A\00", align 1

; Function Attrs: noinline nounwind uwtable
define dso_local i32 @main() #0 {
  %1 = alloca i32, align 4
  %2 = alloca i32, align 4
  %3 = alloca i32, align 4
  %4 = alloca i32, align 4
  %5 = alloca i32, align 4
  %6 = alloca [1000 x i8], align 16
  %7 = alloca [50 x i32], align 16
  %8 = alloca i32, align 4
  %9 = alloca i32, align 4
  %10 = alloca i32, align 4
  %11 = alloca [50 x i32], align 16
  %12 = alloca i32, align 4
  %13 = alloca i32, align 4
  %14 = alloca i32, align 4
  store i32 0, i32* %1, align 4
  store i32 0, i32* %3, align 4
  store i32 0, i32* %4, align 4
  store i32 0, i32* %5, align 4
  %15 = bitcast [50 x i32]* %7 to i8*
  call void @llvm.memset.p0i8.i64(i8* align 16 %15, i8 0, i64 200, i1 false)
  %16 = bitcast [50 x i32]* %11 to i8*
  call void @llvm.memset.p0i8.i64(i8* align 16 %16, i8 0, i64 200, i1 false)
  %17 = getelementptr inbounds [1000 x i8], [1000 x i8]* %6, i64 0, i64 0
  %18 = call i32 (i8*, ...) bitcast (i32 (...)* @gets to i32 (i8*, ...)*)(i8* %17)
  %19 = getelementptr inbounds [1000 x i8], [1000 x i8]* %6, i64 0, i64 0
  %20 = call i64 @strlen(i8* %19) #4
  %21 = trunc i64 %20 to i32
  store i32 %21, i32* %12, align 4
  store i32 0, i32* %2, align 4
  br label %22

22:                                               ; preds = %48, %0
  %23 = load i32, i32* %2, align 4
  %24 = load i32, i32* %12, align 4
  %25 = icmp slt i32 %23, %24
  br i1 %25, label %26, label %51

26:                                               ; preds = %22
  %27 = load i32, i32* %2, align 4
  %28 = sext i32 %27 to i64
  %29 = getelementptr inbounds [1000 x i8], [1000 x i8]* %6, i64 0, i64 %28
  %30 = load i8, i8* %29, align 1
  %31 = sext i8 %30 to i32
  %32 = icmp eq i32 %31, 32
  br i1 %32, label %33, label %34

33:                                               ; preds = %26
  store i32 0, i32* %4, align 4
  br label %47

34:                                               ; preds = %26
  %35 = load i32, i32* %4, align 4
  %36 = icmp eq i32 %35, 0
  br i1 %36, label %37, label %46

37:                                               ; preds = %34
  store i32 1, i32* %4, align 4
  %38 = load i32, i32* %2, align 4
  %39 = load i32, i32* %3, align 4
  %40 = sext i32 %39 to i64
  %41 = getelementptr inbounds [50 x i32], [50 x i32]* %7, i64 0, i64 %40
  store i32 %38, i32* %41, align 4
  %42 = load i32, i32* %3, align 4
  %43 = add nsw i32 %42, 1
  store i32 %43, i32* %3, align 4
  %44 = load i32, i32* %5, align 4
  %45 = add nsw i32 %44, 1
  store i32 %45, i32* %5, align 4
  br label %46

46:                                               ; preds = %37, %34
  br label %47

47:                                               ; preds = %46, %33
  br label %48

48:                                               ; preds = %47
  %49 = load i32, i32* %2, align 4
  %50 = add nsw i32 %49, 1
  store i32 %50, i32* %2, align 4
  br label %22

51:                                               ; preds = %22
  store i32 0, i32* %3, align 4
  store i32 0, i32* %2, align 4
  br label %52

52:                                               ; preds = %86, %51
  %53 = load i32, i32* %2, align 4
  %54 = load i32, i32* %5, align 4
  %55 = icmp slt i32 %53, %54
  br i1 %55, label %56, label %89

56:                                               ; preds = %52
  %57 = load i32, i32* %2, align 4
  %58 = sext i32 %57 to i64
  %59 = getelementptr inbounds [50 x i32], [50 x i32]* %7, i64 0, i64 %58
  %60 = load i32, i32* %59, align 4
  store i32 %60, i32* %8, align 4
  br label %61

61:                                               ; preds = %80, %56
  %62 = load i32, i32* %8, align 4
  %63 = sext i32 %62 to i64
  %64 = getelementptr inbounds [1000 x i8], [1000 x i8]* %6, i64 0, i64 %63
  %65 = load i8, i8* %64, align 1
  %66 = sext i8 %65 to i32
  %67 = icmp ne i32 %66, 32
  br i1 %67, label %68, label %72

68:                                               ; preds = %61
  %69 = load i32, i32* %8, align 4
  %70 = load i32, i32* %12, align 4
  %71 = icmp slt i32 %69, %70
  br label %72

72:                                               ; preds = %68, %61
  %73 = phi i1 [ false, %61 ], [ %71, %68 ]
  br i1 %73, label %74, label %83

74:                                               ; preds = %72
  %75 = load i32, i32* %3, align 4
  %76 = sext i32 %75 to i64
  %77 = getelementptr inbounds [50 x i32], [50 x i32]* %11, i64 0, i64 %76
  %78 = load i32, i32* %77, align 4
  %79 = add nsw i32 %78, 1
  store i32 %79, i32* %77, align 4
  br label %80

80:                                               ; preds = %74
  %81 = load i32, i32* %8, align 4
  %82 = add nsw i32 %81, 1
  store i32 %82, i32* %8, align 4
  br label %61

83:                                               ; preds = %72
  %84 = load i32, i32* %3, align 4
  %85 = add nsw i32 %84, 1
  store i32 %85, i32* %3, align 4
  br label %86

86:                                               ; preds = %83
  %87 = load i32, i32* %2, align 4
  %88 = add nsw i32 %87, 1
  store i32 %88, i32* %2, align 4
  br label %52

89:                                               ; preds = %52
  store i32 0, i32* %13, align 4
  store i32 100000, i32* %14, align 4
  store i32 0, i32* %2, align 4
  br label %90

90:                                               ; preds = %127, %89
  %91 = load i32, i32* %2, align 4
  %92 = load i32, i32* %5, align 4
  %93 = icmp slt i32 %91, %92
  br i1 %93, label %94, label %130

94:                                               ; preds = %90
  %95 = load i32, i32* %2, align 4
  %96 = sext i32 %95 to i64
  %97 = getelementptr inbounds [50 x i32], [50 x i32]* %11, i64 0, i64 %96
  %98 = load i32, i32* %97, align 4
  %99 = load i32, i32* %13, align 4
  %100 = icmp sgt i32 %98, %99
  br i1 %100, label %101, label %110

101:                                              ; preds = %94
  %102 = load i32, i32* %2, align 4
  %103 = sext i32 %102 to i64
  %104 = getelementptr inbounds [50 x i32], [50 x i32]* %7, i64 0, i64 %103
  %105 = load i32, i32* %104, align 4
  store i32 %105, i32* %9, align 4
  %106 = load i32, i32* %2, align 4
  %107 = sext i32 %106 to i64
  %108 = getelementptr inbounds [50 x i32], [50 x i32]* %11, i64 0, i64 %107
  %109 = load i32, i32* %108, align 4
  store i32 %109, i32* %13, align 4
  br label %110

110:                                              ; preds = %101, %94
  %111 = load i32, i32* %2, align 4
  %112 = sext i32 %111 to i64
  %113 = getelementptr inbounds [50 x i32], [50 x i32]* %11, i64 0, i64 %112
  %114 = load i32, i32* %113, align 4
  %115 = load i32, i32* %14, align 4
  %116 = icmp slt i32 %114, %115
  br i1 %116, label %117, label %126

117:                                              ; preds = %110
  %118 = load i32, i32* %2, align 4
  %119 = sext i32 %118 to i64
  %120 = getelementptr inbounds [50 x i32], [50 x i32]* %7, i64 0, i64 %119
  %121 = load i32, i32* %120, align 4
  store i32 %121, i32* %10, align 4
  %122 = load i32, i32* %2, align 4
  %123 = sext i32 %122 to i64
  %124 = getelementptr inbounds [50 x i32], [50 x i32]* %11, i64 0, i64 %123
  %125 = load i32, i32* %124, align 4
  store i32 %125, i32* %14, align 4
  br label %126

126:                                              ; preds = %117, %110
  br label %127

127:                                              ; preds = %126
  %128 = load i32, i32* %2, align 4
  %129 = add nsw i32 %128, 1
  store i32 %129, i32* %2, align 4
  br label %90

130:                                              ; preds = %90
  %131 = load i32, i32* %9, align 4
  store i32 %131, i32* %2, align 4
  br label %132

132:                                              ; preds = %152, %130
  %133 = load i32, i32* %2, align 4
  %134 = sext i32 %133 to i64
  %135 = getelementptr inbounds [1000 x i8], [1000 x i8]* %6, i64 0, i64 %134
  %136 = load i8, i8* %135, align 1
  %137 = sext i8 %136 to i32
  %138 = icmp ne i32 %137, 32
  br i1 %138, label %139, label %143

139:                                              ; preds = %132
  %140 = load i32, i32* %2, align 4
  %141 = load i32, i32* %12, align 4
  %142 = icmp slt i32 %140, %141
  br label %143

143:                                              ; preds = %139, %132
  %144 = phi i1 [ false, %132 ], [ %142, %139 ]
  br i1 %144, label %145, label %155

145:                                              ; preds = %143
  %146 = load i32, i32* %2, align 4
  %147 = sext i32 %146 to i64
  %148 = getelementptr inbounds [1000 x i8], [1000 x i8]* %6, i64 0, i64 %147
  %149 = load i8, i8* %148, align 1
  %150 = sext i8 %149 to i32
  %151 = call i32 (i8*, ...) @printf(i8* getelementptr inbounds ([3 x i8], [3 x i8]* @.str, i64 0, i64 0), i32 %150)
  br label %152

152:                                              ; preds = %145
  %153 = load i32, i32* %2, align 4
  %154 = add nsw i32 %153, 1
  store i32 %154, i32* %2, align 4
  br label %132

155:                                              ; preds = %143
  %156 = call i32 (i8*, ...) @printf(i8* getelementptr inbounds ([2 x i8], [2 x i8]* @.str.1, i64 0, i64 0))
  %157 = load i32, i32* %10, align 4
  store i32 %157, i32* %2, align 4
  br label %158

158:                                              ; preds = %178, %155
  %159 = load i32, i32* %2, align 4
  %160 = sext i32 %159 to i64
  %161 = getelementptr inbounds [1000 x i8], [1000 x i8]* %6, i64 0, i64 %160
  %162 = load i8, i8* %161, align 1
  %163 = sext i8 %162 to i32
  %164 = icmp ne i32 %163, 32
  br i1 %164, label %165, label %169

165:                                              ; preds = %158
  %166 = load i32, i32* %2, align 4
  %167 = load i32, i32* %12, align 4
  %168 = icmp slt i32 %166, %167
  br label %169

169:                                              ; preds = %165, %158
  %170 = phi i1 [ false, %158 ], [ %168, %165 ]
  br i1 %170, label %171, label %181

171:                                              ; preds = %169
  %172 = load i32, i32* %2, align 4
  %173 = sext i32 %172 to i64
  %174 = getelementptr inbounds [1000 x i8], [1000 x i8]* %6, i64 0, i64 %173
  %175 = load i8, i8* %174, align 1
  %176 = sext i8 %175 to i32
  %177 = call i32 (i8*, ...) @printf(i8* getelementptr inbounds ([3 x i8], [3 x i8]* @.str, i64 0, i64 0), i32 %176)
  br label %178

178:                                              ; preds = %171
  %179 = load i32, i32* %2, align 4
  %180 = add nsw i32 %179, 1
  store i32 %180, i32* %2, align 4
  br label %158

181:                                              ; preds = %169
  %182 = call i32 (i8*, ...) @printf(i8* getelementptr inbounds ([2 x i8], [2 x i8]* @.str.1, i64 0, i64 0))
  ret i32 0
}

; Function Attrs: argmemonly nounwind willreturn
declare void @llvm.memset.p0i8.i64(i8* nocapture writeonly, i8, i64, i1 immarg) #1

declare dso_local i32 @gets(...) #2

; Function Attrs: nounwind readonly
declare dso_local i64 @strlen(i8*) #3

declare dso_local i32 @printf(i8*, ...) #2


!llvm.module.flags = !{!0}
!llvm.ident = !{!1}

!0 = !{i32 1, !"wchar_size", i32 4}
!1 = !{!"clang version 10.0.0-4ubuntu1 "}
